; ModuleID = '9/94.c'
source_filename = "9/94.c"
target datalayout = "e-m:e-p270:32:32-p271:32:32-p272:64:64-i64:64-f80:128-n8:16:32:64-S128"
target triple = "x86_64-pc-linux-gnu"

@.str = private unnamed_addr constant [3 x i8] c"%d\00", align 1
@.str.1 = private unnamed_addr constant [5 x i8] c"%s%d\00", align 1
@.str.2 = private unnamed_addr constant [4 x i8] c"%s\0A\00", align 1

; Function Attrs: noinline nounwind uwtable
define dso_local void @main() #0 {
  %1 = alloca i32, align 4
  %2 = alloca i32, align 4
  %3 = alloca i32, align 4
  %4 = alloca i32, align 4
  %5 = alloca [100 x [10 x i8]], align 16
  %6 = alloca [100 x [10 x i8]], align 16
  %7 = alloca [100 x [10 x i8]], align 16
  %8 = alloca i32, align 4
  %9 = alloca [10 x i8], align 1
  %10 = alloca [100 x i32], align 16
  %11 = alloca [100 x i32], align 16
  %12 = alloca [100 x i32], align 16
  store i32 0, i32* %4, align 4
  %13 = bitcast [100 x [10 x i8]]* %5 to i8*
  call void @llvm.memset.p0i8.i64(i8* align 16 %13, i8 0, i64 1000, i1 false)
  %14 = bitcast [100 x [10 x i8]]* %6 to i8*
  call void @llvm.memset.p0i8.i64(i8* align 16 %14, i8 0, i64 1000, i1 false)
  %15 = bitcast [100 x [10 x i8]]* %7 to i8*
  call void @llvm.memset.p0i8.i64(i8* align 16 %15, i8 0, i64 1000, i1 false)
  %16 = bitcast [10 x i8]* %9 to i8*
  call void @llvm.memset.p0i8.i64(i8* align 1 %16, i8 0, i64 10, i1 false)
  %17 = bitcast [100 x i32]* %11 to i8*
  call void @llvm.memset.p0i8.i64(i8* align 16 %17, i8 0, i64 400, i1 false)
  %18 = bitcast [100 x i32]* %12 to i8*
  call void @llvm.memset.p0i8.i64(i8* align 16 %18, i8 0, i64 400, i1 false)
  %19 = call i32 (i8*, ...) @__isoc99_scanf(i8* getelementptr inbounds ([3 x i8], [3 x i8]* @.str, i64 0, i64 0), i32* %1)
  store i32 0, i32* %2, align 4
  br label %20

20:                                               ; preds = %33, %0
  %21 = load i32, i32* %2, align 4
  %22 = load i32, i32* %1, align 4
  %23 = icmp slt i32 %21, %22
  br i1 %23, label %24, label %36

24:                                               ; preds = %20
  %25 = load i32, i32* %2, align 4
  %26 = sext i32 %25 to i64
  %27 = getelementptr inbounds [100 x [10 x i8]], [100 x [10 x i8]]* %5, i64 0, i64 %26
  %28 = getelementptr inbounds [10 x i8], [10 x i8]* %27, i64 0, i64 0
  %29 = load i32, i32* %2, align 4
  %30 = sext i32 %29 to i64
  %31 = getelementptr inbounds [100 x i32], [100 x i32]* %10, i64 0, i64 %30
  %32 = call i32 (i8*, ...) @__isoc99_scanf(i8* getelementptr inbounds ([5 x i8], [5 x i8]* @.str.1, i64 0, i64 0), i8* %28, i32* %31)
  br label %33

33:                                               ; preds = %24
  %34 = load i32, i32* %2, align 4
  %35 = add nsw i32 %34, 1
  store i32 %35, i32* %2, align 4
  br label %20

36:                                               ; preds = %20
  store i32 0, i32* %2, align 4
  br label %37

37:                                               ; preds = %58, %36
  %38 = load i32, i32* %2, align 4
  %39 = load i32, i32* %1, align 4
  %40 = icmp slt i32 %38, %39
  br i1 %40, label %41, label %61

41:                                               ; preds = %37
  %42 = load i32, i32* %2, align 4
  %43 = sext i32 %42 to i64
  %44 = getelementptr inbounds [100 x [10 x i8]], [100 x [10 x i8]]* %6, i64 0, i64 %43
  %45 = getelementptr inbounds [10 x i8], [10 x i8]* %44, i64 0, i64 0
  %46 = load i32, i32* %2, align 4
  %47 = sext i32 %46 to i64
  %48 = getelementptr inbounds [100 x [10 x i8]], [100 x [10 x i8]]* %5, i64 0, i64 %47
  %49 = getelementptr inbounds [10 x i8], [10 x i8]* %48, i64 0, i64 0
  %50 = call i8* @strcpy(i8* %45, i8* %49) #4
  %51 = load i32, i32* %2, align 4
  %52 = sext i32 %51 to i64
  %53 = getelementptr inbounds [100 x i32], [100 x i32]* %10, i64 0, i64 %52
  %54 = load i32, i32* %53, align 4
  %55 = load i32, i32* %2, align 4
  %56 = sext i32 %55 to i64
  %57 = getelementptr inbounds [100 x i32], [100 x i32]* %11, i64 0, i64 %56
  store i32 %54, i32* %57, align 4
  br label %58

58:                                               ; preds = %41
  %59 = load i32, i32* %2, align 4
  %60 = add nsw i32 %59, 1
  store i32 %60, i32* %2, align 4
  br label %37

61:                                               ; preds = %37
  store i32 0, i32* %2, align 4
  br label %62

62:                                               ; preds = %92, %61
  %63 = load i32, i32* %2, align 4
  %64 = load i32, i32* %1, align 4
  %65 = icmp slt i32 %63, %64
  br i1 %65, label %66, label %95

66:                                               ; preds = %62
  %67 = load i32, i32* %2, align 4
  %68 = sext i32 %67 to i64
  %69 = getelementptr inbounds [100 x i32], [100 x i32]* %10, i64 0, i64 %68
  %70 = load i32, i32* %69, align 4
  %71 = icmp sge i32 %70, 60
  br i1 %71, label %72, label %91

72:                                               ; preds = %66
  %73 = load i32, i32* %4, align 4
  %74 = sext i32 %73 to i64
  %75 = getelementptr inbounds [100 x [10 x i8]], [100 x [10 x i8]]* %7, i64 0, i64 %74
  %76 = getelementptr inbounds [10 x i8], [10 x i8]* %75, i64 0, i64 0
  %77 = load i32, i32* %2, align 4
  %78 = sext i32 %77 to i64
  %79 = getelementptr inbounds [100 x [10 x i8]], [100 x [10 x i8]]* %5, i64 0, i64 %78
  %80 = getelementptr inbounds [10 x i8], [10 x i8]* %79, i64 0, i64 0
  %81 = call i8* @strcpy(i8* %76, i8* %80) #4
  %82 = load i32, i32* %2, align 4
  %83 = sext i32 %82 to i64
  %84 = getelementptr inbounds [100 x i32], [100 x i32]* %10, i64 0, i64 %83
  %85 = load i32, i32* %84, align 4
  %86 = load i32, i32* %4, align 4
  %87 = sext i32 %86 to i64
  %88 = getelementptr inbounds [100 x i32], [100 x i32]* %12, i64 0, i64 %87
  store i32 %85, i32* %88, align 4
  %89 = load i32, i32* %4, align 4
  %90 = add nsw i32 %89, 1
  store i32 %90, i32* %4, align 4
  br label %91

91:                                               ; preds = %72, %66
  br label %92

92:                                               ; preds = %91
  %93 = load i32, i32* %2, align 4
  %94 = add nsw i32 %93, 1
  store i32 %94, i32* %2, align 4
  br label %62

95:                                               ; preds = %62
  store i32 1, i32* %3, align 4
  br label %96

96:                                               ; preds = %164, %95
  %97 = load i32, i32* %3, align 4
  %98 = load i32, i32* %4, align 4
  %99 = icmp slt i32 %97, %98
  br i1 %99, label %100, label %167

100:                                              ; preds = %96
  store i32 0, i32* %2, align 4
  br label %101

101:                                              ; preds = %160, %100
  %102 = load i32, i32* %2, align 4
  %103 = load i32, i32* %4, align 4
  %104 = load i32, i32* %3, align 4
  %105 = sub nsw i32 %103, %104
  %106 = icmp slt i32 %102, %105
  br i1 %106, label %107, label %163

107:                                              ; preds = %101
  %108 = load i32, i32* %2, align 4
  %109 = sext i32 %108 to i64
  %110 = getelementptr inbounds [100 x i32], [100 x i32]* %12, i64 0, i64 %109
  %111 = load i32, i32* %110, align 4
  %112 = load i32, i32* %2, align 4
  %113 = add nsw i32 %112, 1
  %114 = sext i32 %113 to i64
  %115 = getelementptr inbounds [100 x i32], [100 x i32]* %12, i64 0, i64 %114
  %116 = load i32, i32* %115, align 4
  %117 = icmp slt i32 %111, %116
  br i1 %117, label %118, label %159

118:                                              ; preds = %107
  %119 = load i32, i32* %2, align 4
  %120 = sext i32 %119 to i64
  %121 = getelementptr inbounds [100 x i32], [100 x i32]* %12, i64 0, i64 %120
  %122 = load i32, i32* %121, align 4
  store i32 %122, i32* %8, align 4
  %123 = load i32, i32* %2, align 4
  %124 = add nsw i32 %123, 1
  %125 = sext i32 %124 to i64
  %126 = getelementptr inbounds [100 x i32], [100 x i32]* %12, i64 0, i64 %125
  %127 = load i32, i32* %126, align 4
  %128 = load i32, i32* %2, align 4
  %129 = sext i32 %128 to i64
  %130 = getelementptr inbounds [100 x i32], [100 x i32]* %12, i64 0, i64 %129
  store i32 %127, i32* %130, align 4
  %131 = load i32, i32* %8, align 4
  %132 = load i32, i32* %2, align 4
  %133 = add nsw i32 %132, 1
  %134 = sext i32 %133 to i64
  %135 = getelementptr inbounds [100 x i32], [100 x i32]* %12, i64 0, i64 %134
  store i32 %131, i32* %135, align 4
  %136 = getelementptr inbounds [10 x i8], [10 x i8]* %9, i64 0, i64 0
  %137 = load i32, i32* %2, align 4
  %138 = sext i32 %137 to i64
  %139 = getelementptr inbounds [100 x [10 x i8]], [100 x [10 x i8]]* %7, i64 0, i64 %138
  %140 = getelementptr inbounds [10 x i8], [10 x i8]* %139, i64 0, i64 0
  %141 = call i8* @strcpy(i8* %136, i8* %140) #4
  %142 = load i32, i32* %2, align 4
  %143 = sext i32 %142 to i64
  %144 = getelementptr inbounds [100 x [10 x i8]], [100 x [10 x i8]]* %7, i64 0, i64 %143
  %145 = getelementptr inbounds [10 x i8], [10 x i8]* %144, i64 0, i64 0
  %146 = load i32, i32* %2, align 4
  %147 = add nsw i32 %146, 1
  %148 = sext i32 %147 to i64
  %149 = getelementptr inbounds [100 x [10 x i8]], [100 x [10 x i8]]* %7, i64 0, i64 %148
  %150 = getelementptr inbounds [10 x i8], [10 x i8]* %149, i64 0, i64 0
  %151 = call i8* @strcpy(i8* %145, i8* %150) #4
  %152 = load i32, i32* %2, align 4
  %153 = add nsw i32 %152, 1
  %154 = sext i32 %153 to i64
  %155 = getelementptr inbounds [100 x [10 x i8]], [100 x [10 x i8]]* %7, i64 0, i64 %154
  %156 = getelementptr inbounds [10 x i8], [10 x i8]* %155, i64 0, i64 0
  %157 = getelementptr inbounds [10 x i8], [10 x i8]* %9, i64 0, i64 0
  %158 = call i8* @strcpy(i8* %156, i8* %157) #4
  br label %159

159:                                              ; preds = %118, %107
  br label %160

160:                                              ; preds = %159
  %161 = load i32, i32* %2, align 4
  %162 = add nsw i32 %161, 1
  store i32 %162, i32* %2, align 4
  br label %101

163:                                              ; preds = %101
  br label %164

164:                                              ; preds = %163
  %165 = load i32, i32* %3, align 4
  %166 = add nsw i32 %165, 1
  store i32 %166, i32* %3, align 4
  br label %96

167:                                              ; preds = %96
  store i32 0, i32* %2, align 4
  br label %168

168:                                              ; preds = %178, %167
  %169 = load i32, i32* %2, align 4
  %170 = load i32, i32* %4, align 4
  %171 = icmp slt i32 %169, %170
  br i1 %171, label %172, label %181

172:                                              ; preds = %168
  %173 = load i32, i32* %2, align 4
  %174 = sext i32 %173 to i64
  %175 = getelementptr inbounds [100 x [10 x i8]], [100 x [10 x i8]]* %7, i64 0, i64 %174
  %176 = getelementptr inbounds [10 x i8], [10 x i8]* %175, i64 0, i64 0
  %177 = call i32 (i8*, ...) @printf(i8* getelementptr inbounds ([4 x i8], [4 x i8]* @.str.2, i64 0, i64 0), i8* %176)
  br label %178

178:                                              ; preds = %172
  %179 = load i32, i32* %2, align 4
  %180 = add nsw i32 %179, 1
  store i32 %180, i32* %2, align 4
  br label %168

181:                                              ; preds = %168
  store i32 0, i32* %2, align 4
  br label %182

182:                                              ; preds = %199, %181
  %183 = load i32, i32* %2, align 4
  %184 = load i32, i32* %1, align 4
  %185 = icmp slt i32 %183, %184
  br i1 %185, label %186, label %202

186:                                              ; preds = %182
  %187 = load i32, i32* %2, align 4
  %188 = sext i32 %187 to i64
  %189 = getelementptr inbounds [100 x i32], [100 x i32]* %11, i64 0, i64 %188
  %190 = load i32, i32* %189, align 4
  %191 = icmp slt i32 %190, 60
  br i1 %191, label %192, label %198

192:                                              ; preds = %186
  %193 = load i32, i32* %2, align 4
  %194 = sext i32 %193 to i64
  %195 = getelementptr inbounds [100 x [10 x i8]], [100 x [10 x i8]]* %6, i64 0, i64 %194
  %196 = getelementptr inbounds [10 x i8], [10 x i8]* %195, i64 0, i64 0
  %197 = call i32 (i8*, ...) @printf(i8* getelementptr inbounds ([4 x i8], [4 x i8]* @.str.2, i64 0, i64 0), i8* %196)
  br label %198

198:                                              ; preds = %192, %186
  br label %199

199:                                              ; preds = %198
  %200 = load i32, i32* %2, align 4
  %201 = add nsw i32 %200, 1
  store i32 %201, i32* %2, align 4
  br label %182

202:                                              ; preds = %182
  ret void
}

; Function Attrs: argmemonly nounwind willreturn
declare void @llvm.memset.p0i8.i64(i8* nocapture writeonly, i8, i64, i1 immarg) #1

declare dso_local i32 @__isoc99_scanf(i8*, ...) #2

; Function Attrs: nounwind
declare dso_local i8* @strcpy(i8*, i8*) #3

declare dso_local i32 @printf(i8*, ...) #2


!llvm.module.flags = !{!0}
!llvm.ident = !{!1}

!0 = !{i32 1, !"wchar_size", i32 4}
!1 = !{!"clang version 10.0.0-4ubuntu1 "}
